target datalayout = "e-m:e-p270:32:32-p271:32:32-p272:64:64-i64:64-i128:128-f80:128-n8:16:32:64-S128"
target triple = "x86_64-pc-linux-gnu"

@.str = private unnamed_addr constant [17 x i8] c"TOK_OPEN_BRACKET\00", align 1
@.str.1 = private unnamed_addr constant [18 x i8] c"TOK_CLOSE_BRACKET\00", align 1
@.str.2 = private unnamed_addr constant [9 x i8] c"TOK_DATA\00", align 1
@.str.3 = private unnamed_addr constant [10 x i8] c"TOK_COMMA\00", align 1
@.str.4 = private unnamed_addr constant [8 x i8] c"TOK_KEY\00", align 1
@.str.5 = private unnamed_addr constant [16 x i8] c"TOK_BINARY_DATA\00", align 1
@.str.6 = private unnamed_addr constant [1 x i8] zeroinitializer, align 1

; Function Attrs: mustprogress nounwind uwtable
define hidden noundef ptr @_ZN6Assimp3FBX4Util15TokenTypeStringENS0_9TokenTypeE(i32 noundef %0) #0 {
  %2 = alloca ptr, align 8
  %3 = alloca i32, align 4
  store i32 %0, ptr %3, align 4
  %4 = load i32, ptr %3, align 4
  switch i32 %4, label %11 [
    i32 0, label %5
    i32 1, label %6
    i32 2, label %7
    i32 4, label %8
    i32 5, label %9
    i32 3, label %10
  ]

5:                                                ; preds = %1
  store ptr @.str, ptr %2, align 8
  br label %12

6:                                                ; preds = %1
  store ptr @.str.1, ptr %2, align 8
  br label %12

7:                                                ; preds = %1
  store ptr @.str.2, ptr %2, align 8
  br label %12

8:                                                ; preds = %1
  store ptr @.str.3, ptr %2, align 8
  br label %12

9:                                                ; preds = %1
  store ptr @.str.4, ptr %2, align 8
  br label %12

10:                                               ; preds = %1
  store ptr @.str.5, ptr %2, align 8
  br label %12

11:                                               ; preds = %1
  store ptr @.str.6, ptr %2, align 8
  br label %12

12:                                               ; preds = %11, %10, %9, %8, %7, %6, %5
  %13 = load ptr, ptr %2, align 8
  ret ptr %13
}